target datalayout = "e-m:e-p270:32:32-p271:32:32-p272:64:64-i64:64-i128:128-f80:128-n8:16:32:64-S128"
target triple = "x86_64-pc-linux-gnu"

%struct.AVCodecContext = type { ptr, i32, i32, ptr, i32, i32, ptr, ptr, ptr, i64, i32, i32, ptr, i32, %struct.AVRational, %struct.AVRational, %struct.AVRational, i32, i32, i32, i32, i32, %struct.AVRational, i32, i32, i32, i32, i32, i32, i32, i32, i32, i32, i32, ptr, ptr, i32, float, float, float, float, float, float, float, float, float, i32, i32, i32, i32, i32, i32, i32, i32, i32, i32, i32, i32, ptr, ptr, ptr, i32, i32, i32, i32, i32, i32, i32, i32, i32, i32, %struct.AVChannelLayout, i32, i32, i32, i32, i32, i32, i32, i32, ptr, i32, i32, i32, float, float, i32, i32, i32, i32, i32, ptr, i64, i64, float, float, i32, i32, ptr, ptr, i32, i32, i32, i32, i32, ptr, ptr, ptr, ptr, i32, i32, [8 x i64], i32, i32, i32, i32, i32, i32, i32, ptr, ptr, i32, i32, i32, i32, i32, i32, i32, i32, i32, i32, ptr, ptr, i32, i32, ptr, ptr, ptr, ptr, i32, i32, i64, i32, i32, i64, ptr, i64, ptr, i32, ptr, i32 }
%struct.AVRational = type { i32, i32 }
%struct.AVChannelLayout = type { i32, i32, %union.anon.0, ptr }
%union.anon.0 = type { i64 }
%struct.WavArcContext = type { ptr, %struct.GetBitContext, i32, i32, i32, i32, i32, i32, ptr, i64, i32, i32, [2 x [70 x i32]], [2 x [70 x i32]], [2 x [640 x i32]], [256 x i8], [257 x i16], i16, i16, i16, i16, i16, i16, [70 x i32], [570 x i32] }
%struct.GetBitContext = type { ptr, ptr, i32, i32, i32 }
%union.anon.1 = type { i32 }

; Function Attrs: alwaysinline nounwind willreturn memory(none) uwtable
define internal i32 @av_bswap32(i32 noundef %0) #7 {
  %2 = alloca i32, align 4
  store i32 %0, ptr %2, align 4, !tbaa !58
  %3 = load i32, ptr %2, align 4, !tbaa !58
  %4 = shl i32 %3, 8
  %5 = and i32 %4, 65280
  %6 = load i32, ptr %2, align 4, !tbaa !58
  %7 = lshr i32 %6, 8
  %8 = and i32 %7, 255
  %9 = or i32 %5, %8
  %10 = shl i32 %9, 16
  %11 = load i32, ptr %2, align 4, !tbaa !58
  %12 = lshr i32 %11, 16
  %13 = shl i32 %12, 8
  %14 = and i32 %13, 65280
  %15 = load i32, ptr %2, align 4, !tbaa !58
  %16 = lshr i32 %15, 16
  %17 = lshr i32 %16, 8
  %18 = and i32 %17, 255
  %19 = or i32 %14, %18
  %20 = or i32 %10, %19
  ret i32 %20
}

; Function Attrs: inlinehint nounwind uwtable
define internal i32 @get_bits_count(ptr noundef %0) #5 {
  %2 = alloca ptr, align 8
  store ptr %0, ptr %2, align 8, !tbaa !52
  %3 = load ptr, ptr %2, align 8, !tbaa !52
  %4 = getelementptr inbounds nuw %struct.GetBitContext, ptr %3, i32 0, i32 2
  %5 = load i32, ptr %4, align 8, !tbaa !76
  ret i32 %5
}

; Function Attrs: inlinehint nounwind willreturn memory(none) uwtable
define internal i32 @sign_extend(i32 noundef %0, i32 noundef %1) #6 {
  %3 = alloca i32, align 4
  %4 = alloca i32, align 4
  %5 = alloca i32, align 4
  %6 = alloca %union.anon.1, align 4
  store i32 %0, ptr %3, align 4, !tbaa !58
  store i32 %1, ptr %4, align 4, !tbaa !58
  call void @llvm.lifetime.start.p0(i64 4, ptr %5) #9
  %7 = load i32, ptr %4, align 4, !tbaa !58
  %8 = zext i32 %7 to i64
  %9 = sub i64 32, %8
  %10 = trunc i64 %9 to i32
  store i32 %10, ptr %5, align 4, !tbaa !58
  call void @llvm.lifetime.start.p0(i64 4, ptr %6) #9
  %11 = load i32, ptr %3, align 4, !tbaa !58
  %12 = load i32, ptr %5, align 4, !tbaa !58
  %13 = shl i32 %11, %12
  store i32 %13, ptr %6, align 4, !tbaa !33
  %14 = load i32, ptr %6, align 4, !tbaa !33
  %15 = load i32, ptr %5, align 4, !tbaa !58
  %16 = ashr i32 %14, %15
  call void @llvm.lifetime.end.p0(i64 4, ptr %6) #9
  call void @llvm.lifetime.end.p0(i64 4, ptr %5) #9
  ret i32 %16
}

; Function Attrs: alwaysinline nounwind willreturn memory(none) uwtable
define internal zeroext i16 @av_bswap16(i16 noundef zeroext %0) #7 {
  %2 = alloca i16, align 2
  store i16 %0, ptr %2, align 2, !tbaa !73
  %3 = load i16, ptr %2, align 2, !tbaa !73
  %4 = zext i16 %3 to i32
  %5 = ashr i32 %4, 8
  %6 = load i16, ptr %2, align 2, !tbaa !73
  %7 = zext i16 %6 to i32
  %8 = shl i32 %7, 8
  %9 = or i32 %5, %8
  %10 = trunc i32 %9 to i16
  store i16 %10, ptr %2, align 2, !tbaa !73
  %11 = load i16, ptr %2, align 2, !tbaa !73
  ret i16 %11
}

; Function Attrs: inlinehint nounwind uwtable
define internal i32 @get_bits(ptr noundef %0, i32 noundef %1) #5 {
  %3 = alloca ptr, align 8
  %4 = alloca i32, align 4
  %5 = alloca i32, align 4
  %6 = alloca i32, align 4
  %7 = alloca i32, align 4
  %8 = alloca i32, align 4
  store ptr %0, ptr %3, align 8, !tbaa !52
  store i32 %1, ptr %4, align 4, !tbaa !58
  call void @llvm.lifetime.start.p0(i64 4, ptr %5) #9
  call void @llvm.lifetime.start.p0(i64 4, ptr %6) #9
  %9 = load ptr, ptr %3, align 8, !tbaa !52
  %10 = getelementptr inbounds nuw %struct.GetBitContext, ptr %9, i32 0, i32 2
  %11 = load i32, ptr %10, align 8, !tbaa !76
  store i32 %11, ptr %6, align 4, !tbaa !58
  call void @llvm.lifetime.start.p0(i64 4, ptr %7) #9
  call void @llvm.lifetime.start.p0(i64 4, ptr %8) #9
  %12 = load ptr, ptr %3, align 8, !tbaa !52
  %13 = getelementptr inbounds nuw %struct.GetBitContext, ptr %12, i32 0, i32 4
  %14 = load i32, ptr %13, align 8, !tbaa !77
  store i32 %14, ptr %8, align 4, !tbaa !58
  %15 = load ptr, ptr %3, align 8, !tbaa !52
  %16 = getelementptr inbounds nuw %struct.GetBitContext, ptr %15, i32 0, i32 0
  %17 = load ptr, ptr %16, align 8, !tbaa !131
  %18 = load i32, ptr %6, align 4, !tbaa !58
  %19 = lshr i32 %18, 3
  %20 = zext i32 %19 to i64
  %21 = getelementptr inbounds nuw i8, ptr %17, i64 %20
  %22 = load i32, ptr %21, align 1, !tbaa !33
  %23 = call i32 @av_bswap32(i32 noundef %22) #10
  %24 = load i32, ptr %6, align 4, !tbaa !58
  %25 = and i32 %24, 7
  %26 = shl i32 %23, %25
  %27 = lshr i32 %26, 0
  store i32 %27, ptr %7, align 4, !tbaa !58
  %28 = load i32, ptr %7, align 4, !tbaa !58
  %29 = load i32, ptr %4, align 4, !tbaa !58
  %30 = sub nsw i32 32, %29
  %31 = lshr i32 %28, %30
  store i32 %31, ptr %5, align 4, !tbaa !58
  %32 = load i32, ptr %8, align 4, !tbaa !58
  %33 = load i32, ptr %6, align 4, !tbaa !58
  %34 = load i32, ptr %4, align 4, !tbaa !58
  %35 = add i32 %33, %34
  %36 = icmp ugt i32 %32, %35
  br i1 %36, label %37, label %41

37:                                               ; preds = %2
  %38 = load i32, ptr %6, align 4, !tbaa !58
  %39 = load i32, ptr %4, align 4, !tbaa !58
  %40 = add i32 %38, %39
  br label %43

41:                                               ; preds = %2
  %42 = load i32, ptr %8, align 4, !tbaa !58
  br label %43

43:                                               ; preds = %41, %37
  %44 = phi i32 [ %40, %37 ], [ %42, %41 ]
  store i32 %44, ptr %6, align 4, !tbaa !58
  %45 = load i32, ptr %6, align 4, !tbaa !58
  %46 = load ptr, ptr %3, align 8, !tbaa !52
  %47 = getelementptr inbounds nuw %struct.GetBitContext, ptr %46, i32 0, i32 2
  store i32 %45, ptr %47, align 8, !tbaa !76
  %48 = load i32, ptr %5, align 4, !tbaa !58
  call void @llvm.lifetime.end.p0(i64 4, ptr %8) #9
  call void @llvm.lifetime.end.p0(i64 4, ptr %7) #9
  call void @llvm.lifetime.end.p0(i64 4, ptr %6) #9
  call void @llvm.lifetime.end.p0(i64 4, ptr %5) #9
  ret i32 %48
}

; Function Attrs: inlinehint nounwind uwtable
define internal i32 @get_bits_left(ptr noundef %0) #5 {
  %2 = alloca ptr, align 8
  store ptr %0, ptr %2, align 8, !tbaa !52
  %3 = load ptr, ptr %2, align 8, !tbaa !52
  %4 = getelementptr inbounds nuw %struct.GetBitContext, ptr %3, i32 0, i32 3
  %5 = load i32, ptr %4, align 4, !tbaa !132
  %6 = load ptr, ptr %2, align 8, !tbaa !52
  %7 = call i32 @get_bits_count(ptr noundef %6)
  %8 = sub nsw i32 %5, %7
  ret i32 %8
}

; Function Attrs: nounwind uwtable
define internal i32 @decode_0cpy(ptr noundef %0, ptr noundef %1, ptr noundef %2) #1 {
  %4 = alloca ptr, align 8
  %5 = alloca ptr, align 8
  %6 = alloca ptr, align 8
  %7 = alloca i32, align 4
  %8 = alloca i32, align 4
  %9 = alloca i32, align 4
  %10 = alloca i32, align 4
  %11 = alloca i32, align 4
  %12 = alloca i32, align 4
  store ptr %0, ptr %4, align 8, !tbaa !4
  store ptr %1, ptr %5, align 8, !tbaa !29
  store ptr %2, ptr %6, align 8, !tbaa !52
  call void @llvm.lifetime.start.p0(i64 4, ptr %7) #9
  %13 = load ptr, ptr %5, align 8, !tbaa !29
  %14 = getelementptr inbounds nuw %struct.WavArcContext, ptr %13, i32 0, i32 5
  %15 = load i32, ptr %14, align 4, !tbaa !36
  %16 = mul nsw i32 %15, 8
  store i32 %16, ptr %7, align 4, !tbaa !58
  %17 = load ptr, ptr %6, align 8, !tbaa !52
  %18 = call i32 @get_bits_left(ptr noundef %17)
  %19 = load i32, ptr %7, align 4, !tbaa !58
  %20 = sdiv i32 %18, %19
  %21 = icmp sgt i32 640, %20
  br i1 %21, label %22, label %27

22:                                               ; preds = %3
  %23 = load ptr, ptr %6, align 8, !tbaa !52
  %24 = call i32 @get_bits_left(ptr noundef %23)
  %25 = load i32, ptr %7, align 4, !tbaa !58
  %26 = sdiv i32 %24, %25
  br label %28

27:                                               ; preds = %3
  br label %28

28:                                               ; preds = %27, %22
  %29 = phi i32 [ %26, %22 ], [ 640, %27 ]
  %30 = load ptr, ptr %5, align 8, !tbaa !29
  %31 = getelementptr inbounds nuw %struct.WavArcContext, ptr %30, i32 0, i32 3
  store i32 %29, ptr %31, align 4, !tbaa !43
  %32 = load ptr, ptr %4, align 8, !tbaa !4
  %33 = getelementptr inbounds nuw %struct.AVCodecContext, ptr %32, i32 0, i32 70
  %34 = load i32, ptr %33, align 4, !tbaa !40
  switch i32 %34, label %112 [
    i32 5, label %35
    i32 6, label %72
  ]

35:                                               ; preds = %28
  call void @llvm.lifetime.start.p0(i64 4, ptr %8) #9
  store i32 0, ptr %8, align 4, !tbaa !58
  br label %36

36:                                               ; preds = %68, %35
  %37 = load i32, ptr %8, align 4, !tbaa !58
  %38 = load ptr, ptr %5, align 8, !tbaa !29
  %39 = getelementptr inbounds nuw %struct.WavArcContext, ptr %38, i32 0, i32 3
  %40 = load i32, ptr %39, align 4, !tbaa !43
  %41 = icmp slt i32 %37, %40
  br i1 %41, label %43, label %42

42:                                               ; preds = %36
  store i32 3, ptr %9, align 4
  call void @llvm.lifetime.end.p0(i64 4, ptr %8) #9
  br label %71

43:                                               ; preds = %36
  call void @llvm.lifetime.start.p0(i64 4, ptr %10) #9
  store i32 0, ptr %10, align 4, !tbaa !58
  br label %44

44:                                               ; preds = %64, %43
  %45 = load i32, ptr %10, align 4, !tbaa !58
  %46 = load ptr, ptr %4, align 8, !tbaa !4
  %47 = getelementptr inbounds nuw %struct.AVCodecContext, ptr %46, i32 0, i32 71
  %48 = getelementptr inbounds nuw %struct.AVChannelLayout, ptr %47, i32 0, i32 1
  %49 = load i32, ptr %48, align 4, !tbaa !35
  %50 = icmp slt i32 %45, %49
  br i1 %50, label %52, label %51

51:                                               ; preds = %44
  store i32 6, ptr %9, align 4
  call void @llvm.lifetime.end.p0(i64 4, ptr %10) #9
  br label %67

52:                                               ; preds = %44
  %53 = load ptr, ptr %6, align 8, !tbaa !52
  %54 = call i32 @get_bits(ptr noundef %53, i32 noundef 8)
  %55 = sub i32 %54, 128
  %56 = load ptr, ptr %5, align 8, !tbaa !29
  %57 = getelementptr inbounds nuw %struct.WavArcContext, ptr %56, i32 0, i32 14
  %58 = load i32, ptr %10, align 4, !tbaa !58
  %59 = sext i32 %58 to i64
  %60 = getelementptr inbounds [2 x [640 x i32]], ptr %57, i64 0, i64 %59
  %61 = load i32, ptr %8, align 4, !tbaa !58
  %62 = sext i32 %61 to i64
  %63 = getelementptr inbounds [640 x i32], ptr %60, i64 0, i64 %62
  store i32 %55, ptr %63, align 4, !tbaa !58
  br label %64

64:                                               ; preds = %52
  %65 = load i32, ptr %10, align 4, !tbaa !58
  %66 = add nsw i32 %65, 1
  store i32 %66, ptr %10, align 4, !tbaa !58
  br label %44, !llvm.loop !78

67:                                               ; preds = %51
  br label %68

68:                                               ; preds = %67
  %69 = load i32, ptr %8, align 4, !tbaa !58
  %70 = add nsw i32 %69, 1
  store i32 %70, ptr %8, align 4, !tbaa !58
  br label %36, !llvm.loop !79

71:                                               ; preds = %42
  br label %112

72:                                               ; preds = %28
  call void @llvm.lifetime.start.p0(i64 4, ptr %11) #9
  store i32 0, ptr %11, align 4, !tbaa !58
  br label %73

73:                                               ; preds = %108, %72
  %74 = load i32, ptr %11, align 4, !tbaa !58
  %75 = load ptr, ptr %5, align 8, !tbaa !29
  %76 = getelementptr inbounds nuw %struct.WavArcContext, ptr %75, i32 0, i32 3
  %77 = load i32, ptr %76, align 4, !tbaa !43
  %78 = icmp slt i32 %74, %77
  br i1 %78, label %80, label %79

79:                                               ; preds = %73
  store i32 9, ptr %9, align 4
  call void @llvm.lifetime.end.p0(i64 4, ptr %11) #9
  br label %111

80:                                               ; preds = %73
  call void @llvm.lifetime.start.p0(i64 4, ptr %12) #9
  store i32 0, ptr %12, align 4, !tbaa !58
  br label %81

81:                                               ; preds = %104, %80
  %82 = load i32, ptr %12, align 4, !tbaa !58
  %83 = load ptr, ptr %4, align 8, !tbaa !4
  %84 = getelementptr inbounds nuw %struct.AVCodecContext, ptr %83, i32 0, i32 71
  %85 = getelementptr inbounds nuw %struct.AVChannelLayout, ptr %84, i32 0, i32 1
  %86 = load i32, ptr %85, align 4, !tbaa !35
  %87 = icmp slt i32 %82, %86
  br i1 %87, label %89, label %88

88:                                               ; preds = %81
  store i32 12, ptr %9, align 4
  call void @llvm.lifetime.end.p0(i64 4, ptr %12) #9
  br label %107

89:                                               ; preds = %81
  %90 = load ptr, ptr %6, align 8, !tbaa !52
  %91 = call i32 @get_bits(ptr noundef %90, i32 noundef 16)
  %92 = trunc i32 %91 to i16
  %93 = call zeroext i16 @av_bswap16(i16 noundef zeroext %92) #10
  %94 = zext i16 %93 to i32
  %95 = call i32 @sign_extend(i32 noundef %94, i32 noundef 16) #10
  %96 = load ptr, ptr %5, align 8, !tbaa !29
  %97 = getelementptr inbounds nuw %struct.WavArcContext, ptr %96, i32 0, i32 14
  %98 = load i32, ptr %12, align 4, !tbaa !58
  %99 = sext i32 %98 to i64
  %100 = getelementptr inbounds [2 x [640 x i32]], ptr %97, i64 0, i64 %99
  %101 = load i32, ptr %11, align 4, !tbaa !58
  %102 = sext i32 %101 to i64
  %103 = getelementptr inbounds [640 x i32], ptr %100, i64 0, i64 %102
  store i32 %95, ptr %103, align 4, !tbaa !58
  br label %104

104:                                              ; preds = %89
  %105 = load i32, ptr %12, align 4, !tbaa !58
  %106 = add nsw i32 %105, 1
  store i32 %106, ptr %12, align 4, !tbaa !58
  br label %81, !llvm.loop !80

107:                                              ; preds = %88
  br label %108

108:                                              ; preds = %107
  %109 = load i32, ptr %11, align 4, !tbaa !58
  %110 = add nsw i32 %109, 1
  store i32 %110, ptr %11, align 4, !tbaa !58
  br label %73, !llvm.loop !81

111:                                              ; preds = %79
  br label %112

112:                                              ; preds = %28, %111, %71
  store i32 1, ptr %9, align 4
  call void @llvm.lifetime.end.p0(i64 4, ptr %7) #9
  ret i32 0
}