; Function Attrs: nofree norecurse nosync nounwind memory(read, argmem: readwrite, inaccessiblemem: none) uwtable
define internal fastcc void @decode_0cpy(ptr noundef readonly captures(none) %0, ptr noundef captures(none) initializes((44, 48)) %1, ptr noundef captures(none) %2) unnamed_addr #4 {
  %4 = getelementptr inbounds nuw i8, ptr %1, i64 52
  %5 = load i32, ptr %4, align 4, !tbaa !32
  %6 = shl nsw i32 %5, 3
  %7 = getelementptr i8, ptr %2, i64 16
  %.val = load i32, ptr %7, align 8, !tbaa !54
  %8 = getelementptr i8, ptr %2, i64 20
  %.val29 = load i32, ptr %8, align 4, !tbaa !51
  %9 = sub nsw i32 %.val29, %.val
  %10 = sdiv i32 %9, %6
  %spec.select = tail call i32 @llvm.smin.i32(i32 %10, i32 640)
  %11 = getelementptr inbounds nuw i8, ptr %1, i64 44
  store i32 %spec.select, ptr %11, align 4, !tbaa !39
  %12 = getelementptr inbounds nuw i8, ptr %0, i64 348
  %13 = load i32, ptr %12, align 4, !tbaa !36
  switch i32 %13, label %.loopexit [
    i32 5, label %.preheader32
    i32 6, label %.preheader34
  ]

.preheader34:                                     ; preds = %3
  %14 = icmp sgt i32 %10, 0
  br i1 %14, label %.preheader33.lr.ph, label %.loopexit

.preheader33.lr.ph:                               ; preds = %.preheader34
  %15 = getelementptr inbounds nuw i8, ptr %0, i64 356
  %16 = getelementptr inbounds nuw i8, ptr %2, i64 24
  %17 = getelementptr inbounds nuw i8, ptr %1, i64 1208
  %18 = load i32, ptr %15, align 4, !tbaa !31
  %19 = icmp sgt i32 %18, 0
  br i1 %19, label %.preheader33.preheader, label %.loopexit

.preheader33.preheader:                           ; preds = %.preheader33.lr.ph
  %wide.trip.count = zext nneg i32 %spec.select to i64
  br label %.preheader33

.preheader32:                                     ; preds = %3
  %20 = icmp sgt i32 %10, 0
  br i1 %20, label %.preheader.lr.ph, label %.loopexit

.preheader.lr.ph:                                 ; preds = %.preheader32
  %21 = getelementptr inbounds nuw i8, ptr %0, i64 356
  %22 = getelementptr inbounds nuw i8, ptr %2, i64 24
  %23 = getelementptr inbounds nuw i8, ptr %1, i64 1208
  %24 = load i32, ptr %21, align 4, !tbaa !31
  %25 = icmp sgt i32 %24, 0
  br i1 %25, label %.preheader.preheader, label %.loopexit

.preheader.preheader:                             ; preds = %.preheader.lr.ph
  %wide.trip.count55 = zext nneg i32 %spec.select to i64
  br label %.preheader

.preheader:                                       ; preds = %.preheader.preheader, %._crit_edge40
  %26 = phi i32 [ %24, %.preheader.preheader ], [ %29, %._crit_edge40 ]
  %indvars.iv52 = phi i64 [ 0, %.preheader.preheader ], [ %indvars.iv.next53, %._crit_edge40 ]
  %27 = icmp sgt i32 %26, 0
  br i1 %27, label %.lr.ph39, label %._crit_edge40

.lr.ph39:                                         ; preds = %.preheader
  %28 = load ptr, ptr %2, align 8, !tbaa !50
  br label %30

._crit_edge40:                                    ; preds = %30, %.preheader
  %29 = phi i32 [ %26, %.preheader ], [ %45, %30 ]
  %indvars.iv.next53 = add nuw nsw i64 %indvars.iv52, 1
  %exitcond56.not = icmp eq i64 %indvars.iv.next53, %wide.trip.count55
  br i1 %exitcond56.not, label %.loopexit, label %.preheader, !llvm.loop !85

30:                                               ; preds = %.lr.ph39, %30
  %indvars.iv49 = phi i64 [ 0, %.lr.ph39 ], [ %indvars.iv.next50, %30 ]
  %31 = load i32, ptr %7, align 8, !tbaa !54
  %32 = load i32, ptr %22, align 8, !tbaa !52
  %33 = lshr i32 %31, 3
  %34 = zext nneg i32 %33 to i64
  %35 = getelementptr inbounds nuw i8, ptr %28, i64 %34
  %36 = load i32, ptr %35, align 1, !tbaa !29
  %37 = tail call i32 @llvm.bswap.i32(i32 %36)
  %38 = and i32 %31, 7
  %39 = shl i32 %37, %38
  %40 = lshr i32 %39, 24
  %41 = add i32 %31, 8
  %42 = tail call i32 @llvm.umin.i32(i32 %32, i32 %41)
  store i32 %42, ptr %7, align 8, !tbaa !54
  %43 = add nsw i32 %40, -128
  %44 = getelementptr inbounds nuw [2 x [640 x i32]], ptr %23, i64 0, i64 %indvars.iv49, i64 %indvars.iv52
  store i32 %43, ptr %44, align 4, !tbaa !47
  %indvars.iv.next50 = add nuw nsw i64 %indvars.iv49, 1
  %45 = load i32, ptr %21, align 4, !tbaa !31
  %46 = sext i32 %45 to i64
  %47 = icmp slt i64 %indvars.iv.next50, %46
  br i1 %47, label %30, label %._crit_edge40, !llvm.loop !86

.preheader33:                                     ; preds = %.preheader33.preheader, %._crit_edge
  %48 = phi i32 [ %18, %.preheader33.preheader ], [ %51, %._crit_edge ]
  %indvars.iv46 = phi i64 [ 0, %.preheader33.preheader ], [ %indvars.iv.next47, %._crit_edge ]
  %49 = icmp sgt i32 %48, 0
  br i1 %49, label %.lr.ph, label %._crit_edge

.lr.ph:                                           ; preds = %.preheader33
  %50 = load ptr, ptr %2, align 8, !tbaa !50
  br label %52

._crit_edge:                                      ; preds = %52, %.preheader33
  %51 = phi i32 [ %48, %.preheader33 ], [ %69, %52 ]
  %indvars.iv.next47 = add nuw nsw i64 %indvars.iv46, 1
  %exitcond.not = icmp eq i64 %indvars.iv.next47, %wide.trip.count
  br i1 %exitcond.not, label %.loopexit, label %.preheader33, !llvm.loop !87

52:                                               ; preds = %.lr.ph, %52
  %indvars.iv = phi i64 [ 0, %.lr.ph ], [ %indvars.iv.next, %52 ]
  %53 = load i32, ptr %7, align 8, !tbaa !54
  %54 = load i32, ptr %16, align 8, !tbaa !52
  %55 = lshr i32 %53, 3
  %56 = zext nneg i32 %55 to i64
  %57 = getelementptr inbounds nuw i8, ptr %50, i64 %56
  %58 = load i32, ptr %57, align 1, !tbaa !29
  %59 = tail call i32 @llvm.bswap.i32(i32 %58)
  %60 = and i32 %53, 7
  %61 = shl i32 %59, %60
  %62 = lshr i32 %61, 16
  %63 = add i32 %53, 16
  %64 = tail call i32 @llvm.umin.i32(i32 %54, i32 %63)
  store i32 %64, ptr %7, align 8, !tbaa !54
  %65 = trunc nuw i32 %62 to i16
  %66 = tail call i16 @llvm.bswap.i16(i16 %65)
  %67 = sext i16 %66 to i32
  %68 = getelementptr inbounds nuw [2 x [640 x i32]], ptr %17, i64 0, i64 %indvars.iv, i64 %indvars.iv46
  store i32 %67, ptr %68, align 4, !tbaa !47
  %indvars.iv.next = add nuw nsw i64 %indvars.iv, 1
  %69 = load i32, ptr %15, align 4, !tbaa !31
  %70 = sext i32 %69 to i64
  %71 = icmp slt i64 %indvars.iv.next, %70
  br i1 %71, label %52, label %._crit_edge, !llvm.loop !88

.loopexit:                                        ; preds = %._crit_edge, %._crit_edge40, %.preheader.lr.ph, %.preheader33.lr.ph, %.preheader34, %.preheader32, %3
  ret void
}